; Function Attrs: nounwind sspstrong uwtable
define internal void @virtio_memory_listener_commit(ptr noundef %listener) #0 {
entry:
  %add.ptr = getelementptr i8, ptr %listener, i64 -240
  %vq = getelementptr i8, ptr %listener, i64 -8
  br label %for.body

for.body:                                         ; preds = %entry, %if.end
  %indvars.iv = phi i64 [ 0, %entry ], [ %indvars.iv.next, %if.end ]
  %0 = load ptr, ptr %vq, align 8
  %arrayidx = getelementptr %struct.VirtQueue, ptr %0, i64 %indvars.iv
  %1 = load i32, ptr %arrayidx, align 8
  %cmp1 = icmp eq i32 %1, 0
  br i1 %cmp1, label %for.end, label %if.end

if.end:                                           ; preds = %for.body
  %2 = trunc nuw nsw i64 %indvars.iv to i32
  tail call void @virtio_init_region_cache(ptr noundef %add.ptr, i32 noundef %2)
  %indvars.iv.next = add nuw nsw i64 %indvars.iv, 1
  %exitcond.not = icmp eq i64 %indvars.iv.next, 1024
  br i1 %exitcond.not, label %for.end, label %for.body, !llvm.loop !65

for.end:                                          ; preds = %for.body, %if.end
  ret void
}